target datalayout = "e-m:e-p270:32:32-p271:32:32-p272:64:64-i64:64-i128:128-f80:128-n8:16:32:64-S128"
target triple = "x86_64-pc-linux-gnu"

%"class.llvm::SmallVectorBase" = type { ptr, i32, i32 }
%"class.llvm::SmallPtrSetImplBase.base" = type <{ ptr, ptr, i32, i32, i32 }>
%"class.llvm::SmallVector.11" = type { %"class.llvm::SmallVectorImpl.12", %"struct.llvm::SmallVectorStorage.15" }
%"class.llvm::SmallVectorImpl.12" = type { %"class.llvm::SmallVectorTemplateBase.13" }
%"class.llvm::SmallVectorTemplateBase.13" = type { %"class.llvm::SmallVectorTemplateCommon.14" }
%"class.llvm::SmallVectorTemplateCommon.14" = type { %"class.llvm::SmallVectorBase" }
%"struct.llvm::SmallVectorStorage.15" = type { [8 x i8] }
%"class.llvm::SmallVector.16" = type { %"class.llvm::SmallVectorImpl.17", %"struct.llvm::SmallVectorStorage.20" }
%"class.llvm::SmallVectorImpl.17" = type { %"class.llvm::SmallVectorTemplateBase.18" }
%"class.llvm::SmallVectorTemplateBase.18" = type { %"class.llvm::SmallVectorTemplateCommon.19" }
%"class.llvm::SmallVectorTemplateCommon.19" = type { %"class.llvm::SmallVectorBase" }
%"struct.llvm::SmallVectorStorage.20" = type { [48 x i8] }
%"class.llvm::MachineDominatorTree" = type { %"class.llvm::DominatorTreeBase.base", %"class.llvm::SmallVector.177", %"class.llvm::SmallSet" }
%"class.llvm::DominatorTreeBase.base" = type <{ %"class.llvm::SmallVector.11", %"class.llvm::SmallVector.16", [8 x i8], ptr, ptr, i8, [3 x i8], i32, i32 }>
%"class.llvm::SmallVector.177" = type { %"class.llvm::SmallVectorImpl.178", %"struct.llvm::SmallVectorStorage.181" }
%"class.llvm::SmallVectorImpl.178" = type { %"class.llvm::SmallVectorTemplateBase.179" }
%"class.llvm::SmallVectorTemplateBase.179" = type { %"class.llvm::SmallVectorTemplateCommon.180" }
%"class.llvm::SmallVectorTemplateCommon.180" = type { %"class.llvm::SmallVectorBase" }
%"struct.llvm::SmallVectorStorage.181" = type { [768 x i8] }
%"class.llvm::SmallSet" = type { %"class.llvm::SmallPtrSet.182" }
%"class.llvm::SmallPtrSet.182" = type { %"class.llvm::SmallPtrSetImpl.base.184", [32 x ptr] }
%"class.llvm::SmallPtrSetImpl.base.184" = type { %"class.llvm::SmallPtrSetImplBase.base" }
%"class.llvm::MachineDominatorTreeWrapperPass" = type { %"class.llvm::MachineFunctionPass", %"class.std::optional.207" }
%"class.llvm::MachineFunctionPass" = type { %"class.llvm::FunctionPass.base", %"class.llvm::MachineFunctionProperties", %"class.llvm::MachineFunctionProperties", %"class.llvm::MachineFunctionProperties" }
%"class.llvm::FunctionPass.base" = type { %"class.llvm::Pass.base" }
%"class.llvm::Pass.base" = type <{ ptr, ptr, ptr, i32 }>
%"class.llvm::MachineFunctionProperties" = type { %"class.std::bitset" }
%"class.std::bitset" = type { %"struct.std::_Base_bitset" }
%"struct.std::_Base_bitset" = type { i64 }
%"class.std::optional.207" = type { %"struct.std::_Optional_base.208" }
%"struct.std::_Optional_base.208" = type { %"struct.std::_Optional_payload.210" }
%"struct.std::_Optional_payload.210" = type { %"struct.std::_Optional_payload.base.214", [7 x i8] }
%"struct.std::_Optional_payload.base.214" = type { %"struct.std::_Optional_payload_base.base.213" }
%"struct.std::_Optional_payload_base.base.213" = type <{ %"union.std::_Optional_payload_base<llvm::MachineDominatorTree>::_Storage", i8 }>
%"union.std::_Optional_payload_base<llvm::MachineDominatorTree>::_Storage" = type { %"class.llvm::MachineDominatorTree" }
%"struct.std::_Optional_payload_base.212" = type <{ %"union.std::_Optional_payload_base<llvm::MachineDominatorTree>::_Storage", i8, [7 x i8] }>

; Function Attrs: mustprogress nounwind uwtable
define linkonce_odr hidden noundef nonnull align 8 dereferenceable(1200) ptr @_ZNKSt22_Optional_payload_baseIN4llvm20MachineDominatorTreeEE6_M_getEv(ptr noundef nonnull align 8 dereferenceable(1201) %0) #1 comdat align 2 {
  %2 = alloca ptr, align 8
  store ptr %0, ptr %2, align 8
  %3 = load ptr, ptr %2, align 8
  %4 = getelementptr inbounds nuw %"struct.std::_Optional_payload_base.212", ptr %3, i32 0, i32 0
  ret ptr %4
}

; Function Attrs: mustprogress nounwind uwtable
define linkonce_odr hidden noundef nonnull align 8 dereferenceable(1200) ptr @_ZNKSt19_Optional_base_implIN4llvm20MachineDominatorTreeESt14_Optional_baseIS1_Lb0ELb0EEE6_M_getEv(ptr noundef nonnull align 1 dereferenceable(1) %0) #1 comdat align 2 {
  %2 = alloca ptr, align 8
  store ptr %0, ptr %2, align 8
  %3 = load ptr, ptr %2, align 8
  br label %4

4:                                                ; preds = %1
  br label %5

5:                                                ; preds = %4
  %6 = getelementptr inbounds nuw %"struct.std::_Optional_base.208", ptr %3, i32 0, i32 0
  %7 = call noundef nonnull align 8 dereferenceable(1200) ptr @_ZNKSt22_Optional_payload_baseIN4llvm20MachineDominatorTreeEE6_M_getEv(ptr noundef nonnull align 8 dereferenceable(1201) %6) #2
  ret ptr %7
}

; Function Attrs: mustprogress nounwind uwtable
define linkonce_odr hidden noundef zeroext i1 @_ZNKSt19_Optional_base_implIN4llvm20MachineDominatorTreeESt14_Optional_baseIS1_Lb0ELb0EEE13_M_is_engagedEv(ptr noundef nonnull align 1 dereferenceable(1) %0) #1 comdat align 2 {
  %2 = alloca ptr, align 8
  store ptr %0, ptr %2, align 8
  %3 = load ptr, ptr %2, align 8
  %4 = getelementptr inbounds nuw %"struct.std::_Optional_base.208", ptr %3, i32 0, i32 0
  %5 = getelementptr inbounds nuw %"struct.std::_Optional_payload_base.212", ptr %4, i32 0, i32 1
  %6 = load i8, ptr %5, align 8
  %7 = trunc i8 %6 to i1
  ret i1 %7
}

; Function Attrs: mustprogress nounwind uwtable
define linkonce_odr hidden noundef ptr @_ZNKSt8optionalIN4llvm20MachineDominatorTreeEEptEv(ptr noundef nonnull align 8 dereferenceable(1208) %0) #1 comdat align 2 {
  %2 = alloca ptr, align 8
  store ptr %0, ptr %2, align 8
  %3 = load ptr, ptr %2, align 8
  %4 = call noundef nonnull align 8 dereferenceable(1200) ptr @_ZNKSt19_Optional_base_implIN4llvm20MachineDominatorTreeESt14_Optional_baseIS1_Lb0ELb0EEE6_M_getEv(ptr noundef nonnull align 1 dereferenceable(1) %3) #2
  ret ptr %4
}

; Function Attrs: mustprogress nounwind uwtable
define linkonce_odr hidden noundef zeroext i1 @_ZNKSt8optionalIN4llvm20MachineDominatorTreeEEcvbEv(ptr noundef nonnull align 8 dereferenceable(1208) %0) #1 comdat align 2 {
  %2 = alloca ptr, align 8
  store ptr %0, ptr %2, align 8
  %3 = load ptr, ptr %2, align 8
  %4 = call noundef zeroext i1 @_ZNKSt19_Optional_base_implIN4llvm20MachineDominatorTreeESt14_Optional_baseIS1_Lb0ELb0EEE13_M_is_engagedEv(ptr noundef nonnull align 1 dereferenceable(1) %3) #2
  ret i1 %4
}

; Function Attrs: mustprogress nounwind uwtable
define dso_local void @_ZNK4llvm31MachineDominatorTreeWrapperPass5printERNS_11raw_ostreamEPKNS_6ModuleE(ptr noundef nonnull align 8 dereferenceable(1264) %0, ptr noundef nonnull align 8 dereferenceable(48) %1, ptr noundef %2) unnamed_addr #1 align 2 {
  %4 = alloca ptr, align 8
  %5 = alloca ptr, align 8
  %6 = alloca ptr, align 8
  store ptr %0, ptr %4, align 8
  store ptr %1, ptr %5, align 8
  store ptr %2, ptr %6, align 8
  %7 = load ptr, ptr %4, align 8
  %8 = getelementptr inbounds nuw %"class.llvm::MachineDominatorTreeWrapperPass", ptr %7, i32 0, i32 1
  %9 = call noundef zeroext i1 @_ZNKSt8optionalIN4llvm20MachineDominatorTreeEEcvbEv(ptr noundef nonnull align 8 dereferenceable(1208) %8) #2
  br i1 %9, label %10, label %14

10:                                               ; preds = %3
  %11 = getelementptr inbounds nuw %"class.llvm::MachineDominatorTreeWrapperPass", ptr %7, i32 0, i32 1
  %12 = call noundef ptr @_ZNKSt8optionalIN4llvm20MachineDominatorTreeEEptEv(ptr noundef nonnull align 8 dereferenceable(1208) %11) #2
  %13 = load ptr, ptr %5, align 8
  call void @_ZNK4llvm17DominatorTreeBaseINS_17MachineBasicBlockELb0EE5printERNS_11raw_ostreamE(ptr noundef nonnull align 8 dereferenceable(124) %12, ptr noundef nonnull align 8 dereferenceable(48) %13)
  br label %14

14:                                               ; preds = %10, %3
  ret void
}