; Function Attrs: mustprogress nounwind uwtable
define dso_local void @_ZNK4llvm31MachineDominatorTreeWrapperPass5printERNS_11raw_ostreamEPKNS_6ModuleE(ptr noundef nonnull align 8 dereferenceable(1264) %0, ptr noundef nonnull align 8 dereferenceable(48) %1, ptr nocapture readnone %2) unnamed_addr #0 align 2 {
  %4 = getelementptr inbounds i8, ptr %0, i64 1256
  %5 = load i8, ptr %4, align 8
  %6 = trunc i8 %5 to i1
  br i1 %6, label %7, label %9

7:                                                ; preds = %3
  %8 = getelementptr inbounds nuw i8, ptr %0, i64 56
  tail call void @_ZNK4llvm17DominatorTreeBaseINS_17MachineBasicBlockELb0EE5printERNS_11raw_ostreamE(ptr noundef nonnull align 8 dereferenceable(124) %8, ptr noundef nonnull align 8 dereferenceable(48) %1)
  br label %9

9:                                                ; preds = %7, %3
  ret void
}